Certificate:
    Data:
        Version: 1 (0x0)
        Serial Number: 1 (0x1)
    Signature Algorithm: md5WithRSAEncryption
        Issuer: C=US, ST=CA, O=Open vSwitch, OU=controllerca, CN=OVS controllerca CA Certificate (2014 Jun 26 16:42:40)
        Validity
            Not Before: Jun 26 20:42:40 2014 GMT
            Not After : Jun 23 20:42:40 2024 GMT
        Subject: C=US, ST=CA, O=Open vSwitch, OU=controllerca, CN=OVS controllerca CA Certificate (2014 Jun 26 16:42:40)
        Subject Public Key Info:
            Public Key Algorithm: rsaEncryption
                Public-Key: (2048 bit)
                Modulus:
                    00:b8:57:01:fb:d0:13:8a:14:54:1b:c4:ab:9a:0b:
                    5c:c5:8a:d8:49:3d:f7:e1:1a:02:fb:66:00:8e:54:
                    be:b4:28:ff:4c:e0:6e:51:b6:f1:e5:b3:cd:0b:f9:
                    01:1f:c7:dc:00:a3:68:96:d4:2e:32:c2:2b:aa:db:
                    00:d0:35:5a:66:1e:b8:2c:b0:e6:78:30:ed:42:b9:
                    75:61:c4:da:5c:e6:0f:16:9b:11:23:80:23:38:72:
                    c8:00:32:de:f6:06:4d:f5:54:89:ad:8b:12:76:16:
                    0c:83:cc:fc:d2:32:9d:3d:a4:8e:90:a5:cd:0a:9f:
                    df:8a:7c:4d:f9:4d:79:72:9d:b2:f5:72:e6:4e:eb:
                    c5:fb:db:25:0f:f7:21:8e:9a:0c:83:ef:8f:63:78:
                    57:36:36:7c:87:01:af:9c:e3:95:32:12:95:57:c2:
                    84:df:14:bc:3b:ad:ae:9e:04:8c:ed:a2:11:ce:43:
                    15:81:ae:6e:a3:d5:91:1e:93:e3:e7:b7:f9:b5:68:
                    8e:70:95:e3:32:4c:ac:9c:16:50:81:db:ec:0f:83:
                    55:dc:58:d2:b3:df:44:63:63:90:de:38:68:c2:a3:
                    e8:be:05:7c:d9:a5:c8:f6:bc:ec:7f:ba:67:2d:0e:
                    44:42:71:04:93:0b:6e:4c:5d:fd:7a:07:d8:54:33:
                    ab:31
                Exponent: 65537 (0x10001)
    Signature Algorithm: md5WithRSAEncryption
         50:47:9c:1f:e8:8d:cc:ed:6a:73:41:28:ba:5c:97:12:1a:69:
         35:9a:5a:43:e7:ef:89:63:06:0d:17:a7:92:a7:bc:27:5f:4a:
         bb:3b:d3:d0:7b:d2:cd:34:41:13:7a:c7:d0:c9:8d:13:68:4d:
         36:42:7f:3e:31:ee:87:fe:bb:83:06:2b:86:6e:7b:6f:46:ee:
         94:cc:a1:6d:02:c8:9c:7f:c7:5e:b3:96:0f:71:bb:f8:83:22:
         00:b9:06:9a:c3:1f:67:ea:9f:30:be:c9:bf:17:c7:19:dc:13:
         ca:7e:c7:41:d9:82:a2:68:7d:98:e8:d3:4b:c1:ed:55:a3:25:
         44:52:e1:f3:a1:b3:6b:55:64:19:3d:76:a9:63:bb:85:4d:82:
         15:ec:6a:6c:3f:0a:87:bd:68:b3:72:bc:5b:0d:3a:a8:8f:ed:
         01:7b:fb:19:2f:c0:0b:41:c0:e8:c5:a1:1f:56:eb:17:be:4b:
         31:a1:2f:fe:1a:76:6e:21:3d:fb:fd:37:c0:c1:e3:9d:89:40:
         eb:e5:bd:a4:67:09:30:14:b3:48:20:47:7b:f2:08:e5:fe:a5:
         e6:ca:76:61:7b:64:3d:1f:b9:88:4b:80:39:13:c3:58:ea:a8:
         32:ec:e5:45:c0:c4:05:21:d8:12:ed:5c:ff:97:12:df:db:4f:
         1e:f0:a3:6a
-----BEGIN CERTIFICATE-----
MIIDiDCCAnACAQEwDQYJKoZIhvcNAQEEBQAwgYkxCzAJBgNVBAYTAlVTMQswCQYD
VQQIEwJDQTEVMBMGA1UEChMMT3BlbiB2U3dpdGNoMRUwEwYDVQQLEwxjb250cm9s
bGVyY2ExPzA9BgNVBAMTNk9WUyBjb250cm9sbGVyY2EgQ0EgQ2VydGlmaWNhdGUg
KDIwMTQgSnVuIDI2IDE2OjQyOjQwKTAeFw0xNDA2MjYyMDQyNDBaFw0yNDA2MjMy
MDQyNDBaMIGJMQswCQYDVQQGEwJVUzELMAkGA1UECBMCQ0ExFTATBgNVBAoTDE9w
ZW4gdlN3aXRjaDEVMBMGA1UECxMMY29udHJvbGxlcmNhMT8wPQYDVQQDEzZPVlMg
Y29udHJvbGxlcmNhIENBIENlcnRpZmljYXRlICgyMDE0IEp1biAyNiAxNjo0Mjo0
MCkwggEiMA0GCSqGSIb3DQEBAQUAA4IBDwAwggEKAoIBAQC4VwH70BOKFFQbxKua
C1zFithJPffhGgL7ZgCOVL60KP9M4G5RtvHls80L+QEfx9wAo2iW1C4ywiuq2wDQ
NVpmHrgssOZ4MO1CuXVhxNpc5g8WmxEjgCM4csgAMt72Bk31VImtixJ2FgyDzPzS
Mp09pI6Qpc0Kn9+KfE35TXlynbL1cuZO68X72yUP9yGOmgyD749jeFc2NnyHAa+c
45UyEpVXwoTfFLw7ra6eBIztohHOQxWBrm6j1ZEek+Pnt/m1aI5wleMyTKycFlCB
2+wPg1XcWNKz30RjY5DeOGjCo+i+BXzZpcj2vOx/umctDkRCcQSTC25MXf16B9hU
M6sxAgMBAAEwDQYJKoZIhvcNAQEEBQADggEBAFBHnB/ojcztanNBKLpclxIaaTWa
WkPn74ljBg0Xp5KnvCdfSrs709B70s00QRN6x9DJjRNoTTZCfz4x7of+u4MGK4Zu
e29G7pTMoW0CyJx/x16zlg9xu/iDIgC5BprDH2fqnzC+yb8XxxncE8p+x0HZgqJo
fZjo00vB7VWjJURS4fOhs2tVZBk9dqlju4VNghXsamw/Coe9aLNyvFsNOqiP7QF7
+xkvwAtBwOjFoR9W6xe+SzGhL/4adm4hPfv9N8DB452JQOvlvaRnCTAUs0ggR3vy
COX+pebKdmF7ZD0fuYhLgDkTw1jqqDLs5UXAxAUh2BLtXP+XEt/bTx7wo2o=
-----END CERTIFICATE-----
