Certificate:
    Data:
        Version: 1 (0x0)
        Serial Number: 2 (0x2)
    Signature Algorithm: md5WithRSAEncryption
        Issuer: C=US, ST=CA, O=Open vSwitch, OU=switchca, CN=OVS switchca CA Certificate (2014 Jun 26 16:42:40)
        Validity
            Not Before: Jun 26 20:43:32 2014 GMT
            Not After : Jun 23 20:43:32 2024 GMT
        Subject: C=US, ST=CA, O=Open vSwitch, OU=Open vSwitch certifier, CN=sc id:9423eba5-1a78-4ecb-8da7-1588930e534b
        Subject Public Key Info:
            Public Key Algorithm: rsaEncryption
                Public-Key: (2048 bit)
                Modulus:
                    00:cc:cc:e1:56:47:72:0b:d9:d6:5e:81:26:ab:26:
                    5d:1f:bb:2b:be:5a:1f:92:0c:67:c8:26:71:ff:33:
                    51:02:8d:9c:35:5b:aa:8c:26:cc:c5:80:ca:cd:04:
                    13:1a:95:53:54:91:c8:db:07:c4:1b:e3:e3:d8:21:
                    1e:49:db:de:3d:f2:a3:cb:c9:dc:00:05:69:b1:88:
                    5d:f5:a6:d9:7e:2e:74:d0:ad:72:8e:95:18:55:60:
                    95:be:be:ed:67:42:3e:33:5a:83:ea:dc:a4:bb:0f:
                    a8:6a:bf:26:95:4c:07:03:ad:f2:c3:fa:3a:b4:6c:
                    e2:f4:44:cb:41:8f:eb:25:d2:b7:4a:1d:7c:42:55:
                    8d:c8:cc:e9:c0:02:9a:62:3e:db:b8:49:1d:0f:72:
                    db:49:d7:86:ce:b4:aa:a2:b1:fb:c6:f1:48:d0:ba:
                    9e:8e:15:fe:d6:57:c8:d1:a6:2e:80:9a:ae:89:7c:
                    f2:26:9d:c6:2d:02:f2:e9:8b:01:6c:ba:7a:c3:62:
                    3e:fa:82:6c:fb:8c:c1:6a:c9:ec:8f:1b:49:05:98:
                    e4:40:20:4e:1b:44:a7:62:85:e6:e7:ff:8e:27:f9:
                    29:86:f0:1c:99:40:4b:26:81:32:3b:ca:76:1b:af:
                    52:3b:b8:cf:e8:d5:d6:fa:24:f4:b7:fb:e1:93:3a:
                    f3:8d
                Exponent: 65537 (0x10001)
    Signature Algorithm: md5WithRSAEncryption
         af:cb:18:9e:2f:11:ce:73:68:0d:85:d1:f9:39:91:be:53:9e:
         71:e6:56:b8:ef:f9:ae:27:5b:7f:9a:84:21:3b:8a:dd:21:7d:
         40:ca:1f:b7:fc:d6:a6:32:e0:2a:63:81:ed:30:b9:bd:3f:f9:
         26:fa:ec:19:ab:1e:71:d9:1a:d7:ad:e0:b7:d8:55:a1:c7:53:
         a9:df:53:05:c8:8e:bc:e3:36:06:b8:a2:81:44:b1:55:7f:44:
         20:84:8b:b5:b4:19:d0:22:ac:91:7b:3f:7b:ed:30:ab:28:17:
         8b:fc:58:90:97:71:d1:9a:b0:79:ef:fa:e2:85:27:7b:75:dd:
         8c:36:5c:6d:99:33:23:22:06:95:27:1f:d7:da:07:ca:34:7f:
         0f:5e:55:fd:65:dc:0f:17:a9:26:78:84:df:44:01:07:81:82:
         91:46:b7:ea:55:4a:ce:a0:b1:8c:e4:c0:08:d6:a4:1b:50:04:
         6b:d3:e2:87:9c:99:86:cc:74:be:04:96:d7:9d:fb:bf:99:f9:
         f4:39:f1:67:73:be:36:28:19:f5:8a:13:ea:a2:2b:88:e6:f7:
         2f:20:c7:dd:a2:1f:32:a9:7e:6c:9a:b7:e8:0c:73:46:b4:27:
         3a:4a:f8:96:f6:2b:3e:7e:28:e1:35:48:a3:ac:13:10:26:3a:
         19:2a:26:f6
-----BEGIN CERTIFICATE-----
MIIDfjCCAmYCAQIwDQYJKoZIhvcNAQEEBQAwgYExCzAJBgNVBAYTAlVTMQswCQYD
VQQIEwJDQTEVMBMGA1UEChMMT3BlbiB2U3dpdGNoMREwDwYDVQQLEwhzd2l0Y2hj
YTE7MDkGA1UEAxMyT1ZTIHN3aXRjaGNhIENBIENlcnRpZmljYXRlICgyMDE0IEp1
biAyNiAxNjo0Mjo0MCkwHhcNMTQwNjI2MjA0MzMyWhcNMjQwNjIzMjA0MzMyWjCB
hzELMAkGA1UEBhMCVVMxCzAJBgNVBAgTAkNBMRUwEwYDVQQKEwxPcGVuIHZTd2l0
Y2gxHzAdBgNVBAsTFk9wZW4gdlN3aXRjaCBjZXJ0aWZpZXIxMzAxBgNVBAMTKnNj
IGlkOjk0MjNlYmE1LTFhNzgtNGVjYi04ZGE3LTE1ODg5MzBlNTM0YjCCASIwDQYJ
KoZIhvcNAQEBBQADggEPADCCAQoCggEBAMzM4VZHcgvZ1l6BJqsmXR+7K75aH5IM
Z8gmcf8zUQKNnDVbqowmzMWAys0EExqVU1SRyNsHxBvj49ghHknb3j3yo8vJ3AAF
abGIXfWm2X4udNCtco6VGFVglb6+7WdCPjNag+rcpLsPqGq/JpVMBwOt8sP6OrRs
4vREy0GP6yXSt0odfEJVjcjM6cACmmI+27hJHQ9y20nXhs60qqKx+8bxSNC6no4V
/tZXyNGmLoCarol88iadxi0C8umLAWy6esNiPvqCbPuMwWrJ7I8bSQWY5EAgThtE
p2KF5uf/jif5KYbwHJlASyaBMjvKdhuvUju4z+jV1vok9Lf74ZM6840CAwEAATAN
BgkqhkiG9w0BAQQFAAOCAQEAr8sYni8RznNoDYXR+TmRvlOeceZWuO/5ridbf5qE
ITuK3SF9QMoft/zWpjLgKmOB7TC5vT/5JvrsGasecdka163gt9hVocdTqd9TBciO
vOM2BriigUSxVX9EIISLtbQZ0CKskXs/e+0wqygXi/xYkJdx0Zqwee/64oUne3Xd
jDZcbZkzIyIGlScf19oHyjR/D15V/WXcDxepJniE30QBB4GCkUa36lVKzqCxjOTA
CNakG1AEa9Pih5yZhsx0vgSW1537v5n59DnxZ3O+NigZ9YoT6qIriOb3LyDH3aIf
Mql+bJq36AxzRrQnOkr4lvYrPn4o4TVIo6wTECY6GSom9g==
-----END CERTIFICATE-----
