Certificate:
    Data:
        Version: 1 (0x0)
        Serial Number: 1 (0x1)
    Signature Algorithm: md5WithRSAEncryption
        Issuer: C=US, ST=CA, O=Open vSwitch, OU=switchca, CN=OVS switchca CA Certificate (2014 Jun 26 16:42:40)
        Validity
            Not Before: Jun 26 20:42:40 2014 GMT
            Not After : Jun 23 20:42:40 2024 GMT
        Subject: C=US, ST=CA, O=Open vSwitch, OU=switchca, CN=OVS switchca CA Certificate (2014 Jun 26 16:42:40)
        Subject Public Key Info:
            Public Key Algorithm: rsaEncryption
                Public-Key: (2048 bit)
                Modulus:
                    00:b8:54:77:b7:5f:d4:a4:7c:78:2d:cd:6f:4f:d7:
                    7e:81:be:a2:14:34:0f:4c:96:a7:5f:43:05:f8:df:
                    26:b5:02:2e:51:2a:c3:35:cd:8a:71:8b:d2:aa:a7:
                    12:6e:6b:21:5f:81:6d:c1:5f:d9:7a:10:91:8d:06:
                    e9:75:0c:76:48:a0:69:35:6d:5e:4c:c6:22:b2:bb:
                    5d:ed:12:9a:61:fa:4f:c7:d3:dc:49:ee:6e:b6:d8:
                    cc:11:80:b1:b5:8d:8b:31:e0:8b:6f:c1:f2:41:2d:
                    6a:97:1c:65:f7:a7:a8:be:47:2c:37:c6:84:67:cf:
                    b4:bd:42:89:fa:db:80:1d:65:bc:ed:ba:0a:a1:99:
                    96:14:fa:ee:f8:fe:9b:c6:86:f6:0f:50:33:0b:c5:
                    69:52:f0:52:85:83:b7:66:0a:cc:8a:c9:92:ec:d5:
                    d3:b0:0b:78:ee:48:a6:59:a2:6a:25:db:ab:f5:5d:
                    8c:e0:22:20:0f:ab:e9:2b:8d:1a:bf:6f:be:8b:d5:
                    5d:f3:77:6b:c9:32:92:e6:a6:25:34:e3:15:fe:8b:
                    6c:ca:06:13:ce:f8:ef:d4:3e:84:a9:b5:bc:ff:be:
                    95:35:08:29:61:a3:22:8f:36:7f:46:59:8a:b0:00:
                    24:16:ab:9c:58:84:10:b0:6b:08:80:62:e8:5d:4d:
                    c6:d5
                Exponent: 65537 (0x10001)
    Signature Algorithm: md5WithRSAEncryption
         0d:78:0c:20:8c:de:cc:74:eb:90:78:3b:b8:9d:c7:3f:40:19:
         49:99:60:ec:02:44:74:08:07:7d:56:68:dc:a3:8d:3d:8f:b9:
         be:61:f4:1d:e4:82:ed:b6:d7:8a:5f:6b:48:9d:45:d2:ac:ff:
         56:42:e0:43:e5:2a:b3:49:91:6d:39:41:86:74:72:62:2c:94:
         0c:01:b6:6d:8e:43:4e:59:e0:b0:58:76:07:17:4b:f7:5e:e0:
         6c:75:94:fc:14:f4:6e:77:88:0e:be:fa:65:d9:4c:39:1d:5d:
         88:cf:21:61:9e:b3:d1:da:3b:84:7e:cb:13:93:6d:4c:fd:7f:
         db:63:4a:5f:94:a8:53:05:8a:02:78:e5:d0:d0:85:b4:04:4d:
         49:d8:24:1f:de:f6:14:d7:f2:4b:67:32:b7:83:cc:7c:98:18:
         62:fe:76:b4:38:5b:6c:97:a8:68:2a:1b:a3:d7:03:e0:af:b6:
         37:13:b0:cd:8f:ad:a9:39:b7:e2:97:4b:b2:71:1e:3c:20:20:
         de:36:a3:74:1e:17:13:f3:a1:13:ac:ac:60:bd:6b:62:28:5a:
         04:00:93:78:f6:06:54:88:9c:e5:e6:2b:df:3b:29:05:6a:34:
         43:44:20:94:d8:25:0d:fb:83:32:09:43:26:b2:e2:21:b3:26:
         89:8a:8a:fa
-----BEGIN CERTIFICATE-----
MIIDeDCCAmACAQEwDQYJKoZIhvcNAQEEBQAwgYExCzAJBgNVBAYTAlVTMQswCQYD
VQQIEwJDQTEVMBMGA1UEChMMT3BlbiB2U3dpdGNoMREwDwYDVQQLEwhzd2l0Y2hj
YTE7MDkGA1UEAxMyT1ZTIHN3aXRjaGNhIENBIENlcnRpZmljYXRlICgyMDE0IEp1
biAyNiAxNjo0Mjo0MCkwHhcNMTQwNjI2MjA0MjQwWhcNMjQwNjIzMjA0MjQwWjCB
gTELMAkGA1UEBhMCVVMxCzAJBgNVBAgTAkNBMRUwEwYDVQQKEwxPcGVuIHZTd2l0
Y2gxETAPBgNVBAsTCHN3aXRjaGNhMTswOQYDVQQDEzJPVlMgc3dpdGNoY2EgQ0Eg
Q2VydGlmaWNhdGUgKDIwMTQgSnVuIDI2IDE2OjQyOjQwKTCCASIwDQYJKoZIhvcN
AQEBBQADggEPADCCAQoCggEBALhUd7df1KR8eC3Nb0/XfoG+ohQ0D0yWp19DBfjf
JrUCLlEqwzXNinGL0qqnEm5rIV+BbcFf2XoQkY0G6XUMdkigaTVtXkzGIrK7Xe0S
mmH6T8fT3EnubrbYzBGAsbWNizHgi2/B8kEtapccZfenqL5HLDfGhGfPtL1Cifrb
gB1lvO26CqGZlhT67vj+m8aG9g9QMwvFaVLwUoWDt2YKzIrJkuzV07ALeO5Iplmi
aiXbq/VdjOAiIA+r6SuNGr9vvovVXfN3a8kykuamJTTjFf6LbMoGE87479Q+hKm1
vP++lTUIKWGjIo82f0ZZirAAJBarnFiEELBrCIBi6F1NxtUCAwEAATANBgkqhkiG
9w0BAQQFAAOCAQEADXgMIIzezHTrkHg7uJ3HP0AZSZlg7AJEdAgHfVZo3KONPY+5
vmH0HeSC7bbXil9rSJ1F0qz/VkLgQ+Uqs0mRbTlBhnRyYiyUDAG2bY5DTlngsFh2
BxdL917gbHWU/BT0bneIDr76ZdlMOR1diM8hYZ6z0do7hH7LE5NtTP1/22NKX5So
UwWKAnjl0NCFtARNSdgkH972FNfyS2cyt4PMfJgYYv52tDhbbJeoaCobo9cD4K+2
NxOwzY+tqTm34pdLsnEePCAg3jajdB4XE/OhE6ysYL1rYihaBACTePYGVIic5eYr
3zspBWo0Q0QglNglDfuDMglDJrLiIbMmiYqK+g==
-----END CERTIFICATE-----
