Certificate:
    Data:
        Version: 1 (0x0)
        Serial Number: 2 (0x2)
    Signature Algorithm: md5WithRSAEncryption
        Issuer: C=US, ST=CA, O=Open vSwitch, OU=controllerca, CN=OVS controllerca CA Certificate (2014 Jun 26 16:42:40)
        Validity
            Not Before: Jun 26 20:43:20 2014 GMT
            Not After : Jun 23 20:43:20 2024 GMT
        Subject: C=US, ST=CA, O=Open vSwitch, OU=Open vSwitch certifier, CN=ctl id:d70ae571-8e20-4751-9e74-7b380df4a3ee
        Subject Public Key Info:
            Public Key Algorithm: rsaEncryption
                Public-Key: (2048 bit)
                Modulus:
                    00:d1:e9:8d:b7:66:0f:ce:d2:24:59:db:f0:b1:1f:
                    7c:5b:1e:9f:cb:73:7b:cb:65:24:7b:37:a2:97:97:
                    99:09:6e:49:33:2e:ad:3a:04:14:c0:b0:2a:58:fa:
                    1e:84:ab:c9:db:36:07:b5:e2:3e:76:f0:7e:30:1a:
                    21:6e:1b:4a:19:d7:a3:8b:0f:06:8a:2a:f4:fc:2d:
                    2a:a3:04:2d:51:99:9d:b5:d7:64:65:5a:ea:a0:18:
                    af:84:be:f8:14:f0:2f:70:35:60:f2:f8:aa:9b:bc:
                    15:22:08:97:6f:c2:9a:1c:28:4f:c0:92:0e:b3:3a:
                    96:fc:a6:8e:66:7e:2c:67:09:bd:a1:89:bb:c9:06:
                    8b:00:f1:77:4c:b1:90:b0:18:81:ec:2d:96:56:d9:
                    df:df:8d:bf:64:03:04:32:49:77:1f:40:b6:f8:fa:
                    b0:47:48:c9:0f:70:43:d8:ff:3c:05:58:25:b0:eb:
                    1c:03:91:a0:63:9a:d8:f2:7f:50:67:4a:7d:5f:91:
                    4e:fa:2e:91:6b:6c:6e:34:10:b8:46:74:09:01:94:
                    10:19:65:55:a7:a8:90:3d:7e:bd:29:28:79:e4:a5:
                    07:3a:bf:0f:ff:f2:b1:c4:b8:dc:79:9f:48:a5:31:
                    5e:fc:2c:4b:e0:83:81:66:f5:94:c6:4e:83:68:ef:
                    3d:3f
                Exponent: 65537 (0x10001)
    Signature Algorithm: md5WithRSAEncryption
         4d:86:7c:a3:8b:00:bc:8d:97:57:13:fb:b7:2c:11:9a:92:6d:
         fa:49:d1:31:87:35:c1:e0:fc:20:57:49:2f:e3:7c:10:54:98:
         e6:80:9a:fd:39:16:06:53:5e:46:48:c9:a0:3a:84:3e:e8:cc:
         f4:01:9c:64:61:82:f0:5d:13:a5:ce:5f:00:d5:ef:ae:8c:8f:
         34:96:34:d4:cf:97:02:59:5d:83:de:df:18:80:56:73:8b:0f:
         ef:c6:e0:38:a0:17:47:c3:e1:72:d0:6a:01:f6:f1:90:b7:8f:
         b9:97:68:73:58:29:0c:15:4f:72:bf:67:b4:9a:b0:94:78:a3:
         80:b6:59:f1:e7:c6:e7:4b:5a:1a:86:7c:a9:16:94:27:d1:8f:
         69:6c:93:ee:79:c7:60:91:2c:37:0c:04:d0:d7:bc:47:f6:dd:
         41:7a:9c:ab:db:be:ba:ae:a9:f8:37:88:2a:9e:be:11:15:df:
         90:be:f8:f6:b6:13:76:3c:d5:76:b2:f6:1e:77:41:b5:52:eb:
         01:88:59:5b:b5:ff:6c:bb:4c:f5:e1:2d:1a:3a:75:ec:ac:e8:
         0b:5e:6f:cc:9f:61:f0:fb:98:ed:5e:ef:0a:b2:6f:b9:3c:a5:
         1f:1b:e0:cf:65:7a:93:2d:ca:fd:7d:9b:1f:fd:a5:f8:03:4a:
         18:b8:1f:1a
-----BEGIN CERTIFICATE-----
MIIDhzCCAm8CAQIwDQYJKoZIhvcNAQEEBQAwgYkxCzAJBgNVBAYTAlVTMQswCQYD
VQQIEwJDQTEVMBMGA1UEChMMT3BlbiB2U3dpdGNoMRUwEwYDVQQLEwxjb250cm9s
bGVyY2ExPzA9BgNVBAMTNk9WUyBjb250cm9sbGVyY2EgQ0EgQ2VydGlmaWNhdGUg
KDIwMTQgSnVuIDI2IDE2OjQyOjQwKTAeFw0xNDA2MjYyMDQzMjBaFw0yNDA2MjMy
MDQzMjBaMIGIMQswCQYDVQQGEwJVUzELMAkGA1UECBMCQ0ExFTATBgNVBAoTDE9w
ZW4gdlN3aXRjaDEfMB0GA1UECxMWT3BlbiB2U3dpdGNoIGNlcnRpZmllcjE0MDIG
A1UEAxMrY3RsIGlkOmQ3MGFlNTcxLThlMjAtNDc1MS05ZTc0LTdiMzgwZGY0YTNl
ZTCCASIwDQYJKoZIhvcNAQEBBQADggEPADCCAQoCggEBANHpjbdmD87SJFnb8LEf
fFsen8tze8tlJHs3opeXmQluSTMurToEFMCwKlj6HoSryds2B7XiPnbwfjAaIW4b
ShnXo4sPBooq9PwtKqMELVGZnbXXZGVa6qAYr4S++BTwL3A1YPL4qpu8FSIIl2/C
mhwoT8CSDrM6lvymjmZ+LGcJvaGJu8kGiwDxd0yxkLAYgewtllbZ39+Nv2QDBDJJ
dx9Atvj6sEdIyQ9wQ9j/PAVYJbDrHAORoGOa2PJ/UGdKfV+RTvoukWtsbjQQuEZ0
CQGUEBllVaeokD1+vSkoeeSlBzq/D//yscS43HmfSKUxXvwsS+CDgWb1lMZOg2jv
PT8CAwEAATANBgkqhkiG9w0BAQQFAAOCAQEATYZ8o4sAvI2XVxP7tywRmpJt+knR
MYc1weD8IFdJL+N8EFSY5oCa/TkWBlNeRkjJoDqEPujM9AGcZGGC8F0Tpc5fANXv
royPNJY01M+XAlldg97fGIBWc4sP78bgOKAXR8PhctBqAfbxkLePuZdoc1gpDBVP
cr9ntJqwlHijgLZZ8efG50taGoZ8qRaUJ9GPaWyT7nnHYJEsNwwE0Ne8R/bdQXqc
q9u+uq6p+DeIKp6+ERXfkL749rYTdjzVdrL2HndBtVLrAYhZW7X/bLtM9eEtGjp1
7KzoC15vzJ9h8PuY7V7vCrJvuTylHxvgz2V6ky3K/X2bH/2l+ANKGLgfGg==
-----END CERTIFICATE-----
